target datalayout = "e-m:e-p270:32:32-p271:32:32-p272:64:64-i64:64-i128:128-f80:128-n8:16:32:64-S128"
target triple = "x86_64-pc-linux-gnu"

%"class.absl::lts_20240722::Duration" = type { %"class.absl::lts_20240722::Duration::HiRep", i32 }
%"class.absl::lts_20240722::Duration::HiRep" = type { i32, i32 }
%"class.absl::lts_20240722::TimeZone" = type { %"class.absl::lts_20240722::time_internal::cctz::time_zone" }
%"class.absl::lts_20240722::time_internal::cctz::time_zone" = type { ptr }
%"class.absl::lts_20240722::Time" = type { %"class.absl::lts_20240722::Duration" }
%"class.std::chrono::time_point" = type { %"class.std::chrono::duration" }
%"class.std::chrono::duration" = type { i64 }
%"class.absl::lts_20240722::time_internal::cctz::detail::civil_time" = type { %"struct.absl::lts_20240722::time_internal::cctz::detail::fields" }
%"struct.absl::lts_20240722::time_internal::cctz::detail::fields" = type <{ i64, i8, i8, i8, i8, i8, [3 x i8] }>
%"class.absl::lts_20240722::time_internal::cctz::detail::civil_time.3" = type { %"struct.absl::lts_20240722::time_internal::cctz::detail::fields" }
%"struct.absl::lts_20240722::TimeZone::TimeInfo" = type { i32, %"class.absl::lts_20240722::Time", %"class.absl::lts_20240722::Time", %"class.absl::lts_20240722::Time" }
%"struct.absl::lts_20240722::time_internal::cctz::time_zone::civil_lookup" = type { i32, %"class.std::chrono::time_point", %"class.std::chrono::time_point", %"class.std::chrono::time_point" }

; Function Attrs: mustprogress nounwind uwtable
define linkonce_odr noundef nonnull align 4 dereferenceable(8) ptr @_ZN4absl12lts_202407228Duration5HiRepaSEl(ptr noundef nonnull align 4 dereferenceable(8) %0, i64 noundef %1) #5 comdat align 2 {
  %3 = alloca ptr, align 8
  %4 = alloca i64, align 8
  %5 = alloca i64, align 8
  store ptr %0, ptr %3, align 8, !tbaa !138
  store i64 %1, ptr %4, align 8, !tbaa !11
  %6 = load ptr, ptr %3, align 8
  call void @llvm.lifetime.start.p0(i64 8, ptr %5) #15
  %7 = load i64, ptr %4, align 8, !tbaa !11
  store i64 %7, ptr %5, align 8, !tbaa !11
  %8 = load i64, ptr %5, align 8, !tbaa !11
  %9 = lshr i64 %8, 32
  %10 = trunc i64 %9 to i32
  %11 = getelementptr inbounds nuw %"class.absl::lts_20240722::Duration::HiRep", ptr %6, i32 0, i32 1
  store i32 %10, ptr %11, align 4, !tbaa !140
  %12 = load i64, ptr %5, align 8, !tbaa !11
  %13 = trunc i64 %12 to i32
  %14 = getelementptr inbounds nuw %"class.absl::lts_20240722::Duration::HiRep", ptr %6, i32 0, i32 0
  store i32 %13, ptr %14, align 4, !tbaa !141
  call void @llvm.lifetime.end.p0(i64 8, ptr %5) #15
  ret ptr %6
}

; Function Attrs: mustprogress uwtable
define linkonce_odr void @_ZN4absl12lts_202407228Duration5HiRepC2El(ptr noundef nonnull align 4 dereferenceable(8) %0, i64 noundef %1) unnamed_addr #0 comdat align 2 {
  %3 = alloca ptr, align 8
  %4 = alloca i64, align 8
  store ptr %0, ptr %3, align 8, !tbaa !138
  store i64 %1, ptr %4, align 8, !tbaa !11
  %5 = load ptr, ptr %3, align 8
  %6 = getelementptr inbounds nuw %"class.absl::lts_20240722::Duration::HiRep", ptr %5, i32 0, i32 0
  store i32 0, ptr %6, align 4, !tbaa !141
  %7 = getelementptr inbounds nuw %"class.absl::lts_20240722::Duration::HiRep", ptr %5, i32 0, i32 1
  store i32 0, ptr %7, align 4, !tbaa !140
  %8 = load i64, ptr %4, align 8, !tbaa !11
  %9 = call noundef nonnull align 4 dereferenceable(8) ptr @_ZN4absl12lts_202407228Duration5HiRepaSEl(ptr noundef nonnull align 4 dereferenceable(8) %5, i64 noundef %8)
  ret void
}

; Function Attrs: mustprogress uwtable
define linkonce_odr void @_ZN4absl12lts_202407228DurationC2Ev(ptr noundef nonnull align 4 dereferenceable(12) %0) unnamed_addr #0 comdat align 2 {
  %2 = alloca ptr, align 8
  store ptr %0, ptr %2, align 8, !tbaa !150
  %3 = load ptr, ptr %2, align 8
  %4 = getelementptr inbounds nuw %"class.absl::lts_20240722::Duration", ptr %3, i32 0, i32 0
  call void @_ZN4absl12lts_202407228Duration5HiRepC2El(ptr noundef nonnull align 4 dereferenceable(8) %4, i64 noundef 0)
  %5 = getelementptr inbounds nuw %"class.absl::lts_20240722::Duration", ptr %3, i32 0, i32 1
  store i32 0, ptr %5, align 4, !tbaa !67
  ret void
}

; Function Attrs: mustprogress nounwind uwtable
define linkonce_odr { i64, i64 } @_ZN4absl12lts_2024072213time_internal4cctz6detail5alignENS3_10second_tagENS3_6fieldsE(i64 %0, i64 %1) #5 comdat {
  %3 = alloca %"struct.absl::lts_20240722::time_internal::cctz::detail::fields", align 8
  %4 = alloca %"struct.absl::lts_20240722::time_internal::cctz::detail::fields", align 8
  %5 = getelementptr inbounds nuw { i64, i64 }, ptr %4, i32 0, i32 0
  store i64 %0, ptr %5, align 8
  %6 = getelementptr inbounds nuw { i64, i64 }, ptr %4, i32 0, i32 1
  store i64 %1, ptr %6, align 8
  call void @llvm.memcpy.p0.p0.i64(ptr align 8 %3, ptr align 8 %4, i64 16, i1 false), !tbaa.struct !13
  %7 = load { i64, i64 }, ptr %3, align 8
  ret { i64, i64 } %7
}

; Function Attrs: mustprogress uwtable
define linkonce_odr void @_ZN4absl12lts_202407224TimeC2Ev(ptr noundef nonnull align 4 dereferenceable(12) %0) unnamed_addr #0 comdat align 2 {
  %2 = alloca ptr, align 8
  store ptr %0, ptr %2, align 8, !tbaa !3
  %3 = load ptr, ptr %2, align 8
  %4 = getelementptr inbounds nuw %"class.absl::lts_20240722::Time", ptr %3, i32 0, i32 0
  call void @_ZN4absl12lts_202407228DurationC2Ev(ptr noundef nonnull align 4 dereferenceable(12) %4)
  ret void
}

; Function Attrs: mustprogress nounwind uwtable
define linkonce_odr void @_ZN4absl12lts_2024072213time_internal4cctz6detail10civil_timeINS3_10second_tagEEC2ENS3_6fieldsE(ptr noundef nonnull align 8 dereferenceable(16) %0, i64 %1, i64 %2) unnamed_addr #5 comdat align 2 {
  %4 = alloca %"struct.absl::lts_20240722::time_internal::cctz::detail::fields", align 8
  %5 = alloca ptr, align 8
  %6 = alloca %"struct.absl::lts_20240722::time_internal::cctz::detail::fields", align 8
  %7 = alloca { i64, i64 }, align 8
  %8 = getelementptr inbounds nuw { i64, i64 }, ptr %4, i32 0, i32 0
  store i64 %1, ptr %8, align 8
  %9 = getelementptr inbounds nuw { i64, i64 }, ptr %4, i32 0, i32 1
  store i64 %2, ptr %9, align 8
  store ptr %0, ptr %5, align 8, !tbaa !56
  %10 = load ptr, ptr %5, align 8
  call void @llvm.memcpy.p0.p0.i64(ptr align 8 %6, ptr align 8 %4, i64 16, i1 false), !tbaa.struct !13
  %11 = getelementptr inbounds nuw { i64, i64 }, ptr %6, i32 0, i32 0
  %12 = load i64, ptr %11, align 8
  %13 = getelementptr inbounds nuw { i64, i64 }, ptr %6, i32 0, i32 1
  %14 = load i64, ptr %13, align 8
  %15 = call { i64, i64 } @_ZN4absl12lts_2024072213time_internal4cctz6detail5alignENS3_10second_tagENS3_6fieldsE(i64 %12, i64 %14) #15
  store { i64, i64 } %15, ptr %7, align 8
  call void @llvm.memcpy.p0.p0.i64(ptr align 8 %10, ptr align 8 %7, i64 13, i1 false)
  ret void
}

; Function Attrs: inlinehint mustprogress uwtable
define linkonce_odr void @_ZN4absl12lts_202407228TimeZone8TimeInfoC2Ev(ptr noundef nonnull align 4 dereferenceable(40) %0) unnamed_addr #3 comdat align 2 {
  %2 = alloca ptr, align 8
  store ptr %0, ptr %2, align 8, !tbaa !102
  %3 = load ptr, ptr %2, align 8
  %4 = getelementptr inbounds nuw %"struct.absl::lts_20240722::TimeZone::TimeInfo", ptr %3, i32 0, i32 1
  call void @_ZN4absl12lts_202407224TimeC2Ev(ptr noundef nonnull align 4 dereferenceable(12) %4)
  %5 = getelementptr inbounds nuw %"struct.absl::lts_20240722::TimeZone::TimeInfo", ptr %3, i32 0, i32 2
  call void @_ZN4absl12lts_202407224TimeC2Ev(ptr noundef nonnull align 4 dereferenceable(12) %5)
  %6 = getelementptr inbounds nuw %"struct.absl::lts_20240722::TimeZone::TimeInfo", ptr %3, i32 0, i32 3
  call void @_ZN4absl12lts_202407224TimeC2Ev(ptr noundef nonnull align 4 dereferenceable(12) %6)
  ret void
}

; Function Attrs: mustprogress nounwind uwtable
define linkonce_odr void @_ZN4absl12lts_2024072213time_internal4cctz6detail10civil_timeINS3_10second_tagEEC2INS1_10second_tagEEERKNS4_IT_EEPNSt9enable_ifIXsr3std10is_base_ofIS5_S9_EE5valueEvE4typeE(ptr noundef nonnull align 8 dereferenceable(16) %0, ptr noundef nonnull align 8 dereferenceable(16) %1, ptr noundef %2) unnamed_addr #5 comdat align 2 {
  %4 = alloca ptr, align 8
  %5 = alloca ptr, align 8
  %6 = alloca ptr, align 8
  %7 = alloca %"struct.absl::lts_20240722::time_internal::cctz::detail::fields", align 8
  store ptr %0, ptr %4, align 8, !tbaa !56
  store ptr %1, ptr %5, align 8, !tbaa !92
  store ptr %2, ptr %6, align 8, !tbaa !58
  %8 = load ptr, ptr %4, align 8
  %9 = load ptr, ptr %5, align 8, !tbaa !92
  %10 = getelementptr inbounds nuw %"class.absl::lts_20240722::time_internal::cctz::detail::civil_time.3", ptr %9, i32 0, i32 0
  call void @llvm.memcpy.p0.p0.i64(ptr align 8 %7, ptr align 8 %10, i64 16, i1 false), !tbaa.struct !13
  %11 = getelementptr inbounds nuw { i64, i64 }, ptr %7, i32 0, i32 0
  %12 = load i64, ptr %11, align 8
  %13 = getelementptr inbounds nuw { i64, i64 }, ptr %7, i32 0, i32 1
  %14 = load i64, ptr %13, align 8
  call void @_ZN4absl12lts_2024072213time_internal4cctz6detail10civil_timeINS3_10second_tagEEC2ENS3_6fieldsE(ptr noundef nonnull align 8 dereferenceable(16) %8, i64 %12, i64 %14) #15
  ret void
}

; Function Attrs: mustprogress uwtable
define void @_ZNK4absl12lts_202407228TimeZone2AtENS0_13time_internal4cctz6detail10civil_timeINS2_10second_tagEEE(ptr dead_on_unwind noalias writable sret(%"struct.absl::lts_20240722::TimeZone::TimeInfo") align 4 %0, ptr noundef nonnull align 8 dereferenceable(8) %1, i64 %2, i64 %3) #0 align 2 {
  %5 = alloca %"class.absl::lts_20240722::time_internal::cctz::detail::civil_time.3", align 8
  %6 = alloca ptr, align 8
  %7 = alloca %"class.absl::lts_20240722::time_internal::cctz::detail::civil_time", align 8
  %8 = alloca %"struct.absl::lts_20240722::time_internal::cctz::time_zone::civil_lookup", align 8
  %9 = alloca %"class.absl::lts_20240722::Time", align 4
  %10 = alloca { i64, i32 }, align 8
  %11 = alloca %"class.absl::lts_20240722::Time", align 4
  %12 = alloca { i64, i32 }, align 8
  %13 = alloca %"class.absl::lts_20240722::Time", align 4
  %14 = alloca { i64, i32 }, align 8
  %15 = getelementptr inbounds nuw { i64, i64 }, ptr %5, i32 0, i32 0
  store i64 %2, ptr %15, align 8
  %16 = getelementptr inbounds nuw { i64, i64 }, ptr %5, i32 0, i32 1
  store i64 %3, ptr %16, align 8
  store ptr %1, ptr %6, align 8, !tbaa !49
  %17 = load ptr, ptr %6, align 8
  call void @llvm.lifetime.start.p0(i64 16, ptr %7) #15
  call void @_ZN4absl12lts_2024072213time_internal4cctz6detail10civil_timeINS3_10second_tagEEC2INS1_10second_tagEEERKNS4_IT_EEPNSt9enable_ifIXsr3std10is_base_ofIS5_S9_EE5valueEvE4typeE(ptr noundef nonnull align 8 dereferenceable(16) %7, ptr noundef nonnull align 8 dereferenceable(16) %5, ptr noundef null) #15
  call void @llvm.lifetime.start.p0(i64 32, ptr %8) #15
  %18 = getelementptr inbounds nuw %"class.absl::lts_20240722::TimeZone", ptr %17, i32 0, i32 0
  call void @_ZNK4absl12lts_2024072213time_internal4cctz9time_zone6lookupERKNS2_6detail10civil_timeINS4_10second_tagEEE(ptr dead_on_unwind writable sret(%"struct.absl::lts_20240722::time_internal::cctz::time_zone::civil_lookup") align 8 %8, ptr noundef nonnull align 8 dereferenceable(8) %18, ptr noundef nonnull align 8 dereferenceable(16) %7)
  call void @_ZN4absl12lts_202407228TimeZone8TimeInfoC2Ev(ptr noundef nonnull align 4 dereferenceable(40) %0)
  %19 = getelementptr inbounds nuw %"struct.absl::lts_20240722::time_internal::cctz::time_zone::civil_lookup", ptr %8, i32 0, i32 0
  %20 = load i32, ptr %19, align 8, !tbaa !94
  switch i32 %20, label %27 [
    i32 0, label %21
    i32 1, label %23
    i32 2, label %25
  ]

21:                                               ; preds = %4
  %22 = getelementptr inbounds nuw %"struct.absl::lts_20240722::TimeZone::TimeInfo", ptr %0, i32 0, i32 0
  store i32 0, ptr %22, align 4, !tbaa !98
  br label %27

23:                                               ; preds = %4
  %24 = getelementptr inbounds nuw %"struct.absl::lts_20240722::TimeZone::TimeInfo", ptr %0, i32 0, i32 0
  store i32 1, ptr %24, align 4, !tbaa !98
  br label %27

25:                                               ; preds = %4
  %26 = getelementptr inbounds nuw %"struct.absl::lts_20240722::TimeZone::TimeInfo", ptr %0, i32 0, i32 0
  store i32 2, ptr %26, align 4, !tbaa !98
  br label %27

27:                                               ; preds = %4, %25, %23, %21
  call void @llvm.lifetime.start.p0(i64 12, ptr %9) #15
  %28 = getelementptr inbounds nuw %"struct.absl::lts_20240722::time_internal::cctz::time_zone::civil_lookup", ptr %8, i32 0, i32 1
  %29 = getelementptr inbounds nuw %"class.absl::lts_20240722::TimeZone", ptr %17, i32 0, i32 0
  %30 = call { i64, i32 } @_ZN4absl12lts_2024072212_GLOBAL__N_120MakeTimeWithOverflowERKNSt6chrono10time_pointINS2_3_V212system_clockENS2_8durationIlSt5ratioILl1ELl1EEEEEERKNS0_13time_internal4cctz6detail10civil_timeINSF_10second_tagEEERKNSE_9time_zoneEPb(ptr noundef nonnull align 8 dereferenceable(8) %28, ptr noundef nonnull align 8 dereferenceable(16) %7, ptr noundef nonnull align 8 dereferenceable(8) %29, ptr noundef null)
  %31 = getelementptr inbounds nuw %"class.absl::lts_20240722::Time", ptr %9, i32 0, i32 0
  store { i64, i32 } %30, ptr %10, align 8
  call void @llvm.memcpy.p0.p0.i64(ptr align 4 %31, ptr align 8 %10, i64 12, i1 false)
  %32 = getelementptr inbounds nuw %"struct.absl::lts_20240722::TimeZone::TimeInfo", ptr %0, i32 0, i32 1
  call void @llvm.memcpy.p0.p0.i64(ptr align 4 %32, ptr align 4 %9, i64 12, i1 false), !tbaa.struct !8
  call void @llvm.lifetime.end.p0(i64 12, ptr %9) #15
  call void @llvm.lifetime.start.p0(i64 12, ptr %11) #15
  %33 = getelementptr inbounds nuw %"struct.absl::lts_20240722::time_internal::cctz::time_zone::civil_lookup", ptr %8, i32 0, i32 2
  %34 = getelementptr inbounds nuw %"class.absl::lts_20240722::TimeZone", ptr %17, i32 0, i32 0
  %35 = call { i64, i32 } @_ZN4absl12lts_2024072212_GLOBAL__N_120MakeTimeWithOverflowERKNSt6chrono10time_pointINS2_3_V212system_clockENS2_8durationIlSt5ratioILl1ELl1EEEEEERKNS0_13time_internal4cctz6detail10civil_timeINSF_10second_tagEEERKNSE_9time_zoneEPb(ptr noundef nonnull align 8 dereferenceable(8) %33, ptr noundef nonnull align 8 dereferenceable(16) %7, ptr noundef nonnull align 8 dereferenceable(8) %34, ptr noundef null)
  %36 = getelementptr inbounds nuw %"class.absl::lts_20240722::Time", ptr %11, i32 0, i32 0
  store { i64, i32 } %35, ptr %12, align 8
  call void @llvm.memcpy.p0.p0.i64(ptr align 4 %36, ptr align 8 %12, i64 12, i1 false)
  %37 = getelementptr inbounds nuw %"struct.absl::lts_20240722::TimeZone::TimeInfo", ptr %0, i32 0, i32 2
  call void @llvm.memcpy.p0.p0.i64(ptr align 4 %37, ptr align 4 %11, i64 12, i1 false), !tbaa.struct !8
  call void @llvm.lifetime.end.p0(i64 12, ptr %11) #15
  call void @llvm.lifetime.start.p0(i64 12, ptr %13) #15
  %38 = getelementptr inbounds nuw %"struct.absl::lts_20240722::time_internal::cctz::time_zone::civil_lookup", ptr %8, i32 0, i32 3
  %39 = getelementptr inbounds nuw %"class.absl::lts_20240722::TimeZone", ptr %17, i32 0, i32 0
  %40 = call { i64, i32 } @_ZN4absl12lts_2024072212_GLOBAL__N_120MakeTimeWithOverflowERKNSt6chrono10time_pointINS2_3_V212system_clockENS2_8durationIlSt5ratioILl1ELl1EEEEEERKNS0_13time_internal4cctz6detail10civil_timeINSF_10second_tagEEERKNSE_9time_zoneEPb(ptr noundef nonnull align 8 dereferenceable(8) %38, ptr noundef nonnull align 8 dereferenceable(16) %7, ptr noundef nonnull align 8 dereferenceable(8) %39, ptr noundef null)
  %41 = getelementptr inbounds nuw %"class.absl::lts_20240722::Time", ptr %13, i32 0, i32 0
  store { i64, i32 } %40, ptr %14, align 8
  call void @llvm.memcpy.p0.p0.i64(ptr align 4 %41, ptr align 8 %14, i64 12, i1 false)
  %42 = getelementptr inbounds nuw %"struct.absl::lts_20240722::TimeZone::TimeInfo", ptr %0, i32 0, i32 3
  call void @llvm.memcpy.p0.p0.i64(ptr align 4 %42, ptr align 4 %13, i64 12, i1 false), !tbaa.struct !8
  call void @llvm.lifetime.end.p0(i64 12, ptr %13) #15
  call void @llvm.lifetime.end.p0(i64 32, ptr %8) #15
  call void @llvm.lifetime.end.p0(i64 16, ptr %7) #15
  ret void
}